; Function Attrs: mustprogress nofree norecurse nosync nounwind willreturn memory(read, inaccessiblemem: none) uwtable
define hidden noundef zeroext i1 @_ZNK6hermes5irgen10LReference26canStoreWithoutSideEffectsEv(ptr nocapture noundef nonnull readonly align 8 dereferenceable(48) %this) local_unnamed_addr #4 align 2 {
entry:
  %0 = load i32, ptr %this, align 8
  %cmp = icmp eq i32 %0, 2
  br i1 %cmp, label %land.rhs, label %land.end

land.rhs:                                         ; preds = %entry
  %1 = getelementptr inbounds i8, ptr %this, i64 24
  %2 = load ptr, ptr %1, align 8
  %3 = load i8, ptr %2, align 8
  %cmp.i.i.i.i.i.i = icmp eq i8 %3, 124
  br label %land.end

land.end:                                         ; preds = %land.rhs, %entry
  %4 = phi i1 [ false, %entry ], [ %cmp.i.i.i.i.i.i, %land.rhs ]
  ret i1 %4
}